target datalayout = "e-m:e-p270:32:32-p271:32:32-p272:64:64-i64:64-i128:128-f80:128-n8:16:32:64-S128"
target triple = "x86_64-pc-linux-gnu"

%struct.anon = type { [3 x double] }
%struct._generic_N_Vector = type { ptr, ptr, ptr }
%struct._N_VectorContent_Serial = type { i64, i32, ptr }
%struct._generic_SUNMatrix = type { ptr, ptr, ptr }
%struct._SUNMatrixContent_Dense = type { i64, i64, ptr, i64, ptr }

; Function Attrs: nounwind uwtable
define internal i32 @JacB(double noundef %0, ptr noundef %1, ptr noundef %2, ptr noundef %3, ptr noundef %4, ptr noundef %5, ptr noundef %6, ptr noundef %7, ptr noundef %8) #0 {
  %10 = alloca double, align 8
  %11 = alloca ptr, align 8
  %12 = alloca ptr, align 8
  %13 = alloca ptr, align 8
  %14 = alloca ptr, align 8
  %15 = alloca ptr, align 8
  %16 = alloca ptr, align 8
  %17 = alloca ptr, align 8
  %18 = alloca ptr, align 8
  %19 = alloca ptr, align 8
  %20 = alloca double, align 8
  %21 = alloca double, align 8
  %22 = alloca double, align 8
  %23 = alloca double, align 8
  %24 = alloca double, align 8
  store double %0, ptr %10, align 8, !tbaa !18
  store ptr %1, ptr %11, align 8, !tbaa !16
  store ptr %2, ptr %12, align 8, !tbaa !16
  store ptr %3, ptr %13, align 8, !tbaa !16
  store ptr %4, ptr %14, align 8, !tbaa !12
  store ptr %5, ptr %15, align 8, !tbaa !11
  store ptr %6, ptr %16, align 8, !tbaa !16
  store ptr %7, ptr %17, align 8, !tbaa !16
  store ptr %8, ptr %18, align 8, !tbaa !16
  call void @llvm.lifetime.start.p0(i64 8, ptr %19) #6
  call void @llvm.lifetime.start.p0(i64 8, ptr %20) #6
  call void @llvm.lifetime.start.p0(i64 8, ptr %21) #6
  call void @llvm.lifetime.start.p0(i64 8, ptr %22) #6
  call void @llvm.lifetime.start.p0(i64 8, ptr %23) #6
  call void @llvm.lifetime.start.p0(i64 8, ptr %24) #6
  %25 = load ptr, ptr %15, align 8, !tbaa !11
  store ptr %25, ptr %19, align 8, !tbaa !11
  %26 = load ptr, ptr %19, align 8, !tbaa !11
  %27 = getelementptr inbounds nuw %struct.anon, ptr %26, i32 0, i32 0
  %28 = getelementptr inbounds [3 x double], ptr %27, i64 0, i64 0
  %29 = load double, ptr %28, align 8, !tbaa !18
  store double %29, ptr %22, align 8, !tbaa !18
  %30 = load ptr, ptr %19, align 8, !tbaa !11
  %31 = getelementptr inbounds nuw %struct.anon, ptr %30, i32 0, i32 0
  %32 = getelementptr inbounds [3 x double], ptr %31, i64 0, i64 1
  %33 = load double, ptr %32, align 8, !tbaa !18
  store double %33, ptr %23, align 8, !tbaa !18
  %34 = load ptr, ptr %19, align 8, !tbaa !11
  %35 = getelementptr inbounds nuw %struct.anon, ptr %34, i32 0, i32 0
  %36 = getelementptr inbounds [3 x double], ptr %35, i64 0, i64 2
  %37 = load double, ptr %36, align 8, !tbaa !18
  store double %37, ptr %24, align 8, !tbaa !18
  %38 = load ptr, ptr %11, align 8, !tbaa !16
  %39 = getelementptr inbounds nuw %struct._generic_N_Vector, ptr %38, i32 0, i32 0
  %40 = load ptr, ptr %39, align 8, !tbaa !22
  %41 = getelementptr inbounds nuw %struct._N_VectorContent_Serial, ptr %40, i32 0, i32 2
  %42 = load ptr, ptr %41, align 8, !tbaa !25
  %43 = getelementptr inbounds double, ptr %42, i64 1
  %44 = load double, ptr %43, align 8, !tbaa !18
  store double %44, ptr %20, align 8, !tbaa !18
  %45 = load ptr, ptr %11, align 8, !tbaa !16
  %46 = getelementptr inbounds nuw %struct._generic_N_Vector, ptr %45, i32 0, i32 0
  %47 = load ptr, ptr %46, align 8, !tbaa !22
  %48 = getelementptr inbounds nuw %struct._N_VectorContent_Serial, ptr %47, i32 0, i32 2
  %49 = load ptr, ptr %48, align 8, !tbaa !25
  %50 = getelementptr inbounds double, ptr %49, i64 2
  %51 = load double, ptr %50, align 8, !tbaa !18
  store double %51, ptr %21, align 8, !tbaa !18
  %52 = load double, ptr %22, align 8, !tbaa !18
  %53 = load ptr, ptr %14, align 8, !tbaa !12
  %54 = getelementptr inbounds nuw %struct._generic_SUNMatrix, ptr %53, i32 0, i32 0
  %55 = load ptr, ptr %54, align 8, !tbaa !36
  %56 = getelementptr inbounds nuw %struct._SUNMatrixContent_Dense, ptr %55, i32 0, i32 4
  %57 = load ptr, ptr %56, align 8, !tbaa !39
  %58 = getelementptr inbounds ptr, ptr %57, i64 0
  %59 = load ptr, ptr %58, align 8, !tbaa !42
  %60 = getelementptr inbounds double, ptr %59, i64 0
  store double %52, ptr %60, align 8, !tbaa !18
  %61 = load double, ptr %22, align 8, !tbaa !18
  %62 = fneg double %61
  %63 = load ptr, ptr %14, align 8, !tbaa !12
  %64 = getelementptr inbounds nuw %struct._generic_SUNMatrix, ptr %63, i32 0, i32 0
  %65 = load ptr, ptr %64, align 8, !tbaa !36
  %66 = getelementptr inbounds nuw %struct._SUNMatrixContent_Dense, ptr %65, i32 0, i32 4
  %67 = load ptr, ptr %66, align 8, !tbaa !39
  %68 = getelementptr inbounds ptr, ptr %67, i64 1
  %69 = load ptr, ptr %68, align 8, !tbaa !42
  %70 = getelementptr inbounds double, ptr %69, i64 0
  store double %62, ptr %70, align 8, !tbaa !18
  %71 = load ptr, ptr %14, align 8, !tbaa !12
  %72 = getelementptr inbounds nuw %struct._generic_SUNMatrix, ptr %71, i32 0, i32 0
  %73 = load ptr, ptr %72, align 8, !tbaa !36
  %74 = getelementptr inbounds nuw %struct._SUNMatrixContent_Dense, ptr %73, i32 0, i32 4
  %75 = load ptr, ptr %74, align 8, !tbaa !39
  %76 = getelementptr inbounds ptr, ptr %75, i64 2
  %77 = load ptr, ptr %76, align 8, !tbaa !42
  %78 = getelementptr inbounds double, ptr %77, i64 0
  store double 0.000000e+00, ptr %78, align 8, !tbaa !18
  %79 = load double, ptr %23, align 8, !tbaa !18
  %80 = fneg double %79
  %81 = load double, ptr %21, align 8, !tbaa !18
  %82 = fmul double %80, %81
  %83 = load ptr, ptr %14, align 8, !tbaa !12
  %84 = getelementptr inbounds nuw %struct._generic_SUNMatrix, ptr %83, i32 0, i32 0
  %85 = load ptr, ptr %84, align 8, !tbaa !36
  %86 = getelementptr inbounds nuw %struct._SUNMatrixContent_Dense, ptr %85, i32 0, i32 4
  %87 = load ptr, ptr %86, align 8, !tbaa !39
  %88 = getelementptr inbounds ptr, ptr %87, i64 0
  %89 = load ptr, ptr %88, align 8, !tbaa !42
  %90 = getelementptr inbounds double, ptr %89, i64 1
  store double %82, ptr %90, align 8, !tbaa !18
  %91 = load double, ptr %23, align 8, !tbaa !18
  %92 = load double, ptr %21, align 8, !tbaa !18
  %93 = load double, ptr %24, align 8, !tbaa !18
  %94 = fmul double 2.000000e+00, %93
  %95 = load double, ptr %20, align 8, !tbaa !18
  %96 = fmul double %94, %95
  %97 = call double @llvm.fmuladd.f64(double %91, double %92, double %96)
  %98 = load ptr, ptr %14, align 8, !tbaa !12
  %99 = getelementptr inbounds nuw %struct._generic_SUNMatrix, ptr %98, i32 0, i32 0
  %100 = load ptr, ptr %99, align 8, !tbaa !36
  %101 = getelementptr inbounds nuw %struct._SUNMatrixContent_Dense, ptr %100, i32 0, i32 4
  %102 = load ptr, ptr %101, align 8, !tbaa !39
  %103 = getelementptr inbounds ptr, ptr %102, i64 1
  %104 = load ptr, ptr %103, align 8, !tbaa !42
  %105 = getelementptr inbounds double, ptr %104, i64 1
  store double %97, ptr %105, align 8, !tbaa !18
  %106 = load double, ptr %24, align 8, !tbaa !18
  %107 = fmul double -2.000000e+00, %106
  %108 = load double, ptr %20, align 8, !tbaa !18
  %109 = fmul double %107, %108
  %110 = load ptr, ptr %14, align 8, !tbaa !12
  %111 = getelementptr inbounds nuw %struct._generic_SUNMatrix, ptr %110, i32 0, i32 0
  %112 = load ptr, ptr %111, align 8, !tbaa !36
  %113 = getelementptr inbounds nuw %struct._SUNMatrixContent_Dense, ptr %112, i32 0, i32 4
  %114 = load ptr, ptr %113, align 8, !tbaa !39
  %115 = getelementptr inbounds ptr, ptr %114, i64 2
  %116 = load ptr, ptr %115, align 8, !tbaa !42
  %117 = getelementptr inbounds double, ptr %116, i64 1
  store double %109, ptr %117, align 8, !tbaa !18
  %118 = load double, ptr %23, align 8, !tbaa !18
  %119 = fneg double %118
  %120 = load double, ptr %20, align 8, !tbaa !18
  %121 = fmul double %119, %120
  %122 = load ptr, ptr %14, align 8, !tbaa !12
  %123 = getelementptr inbounds nuw %struct._generic_SUNMatrix, ptr %122, i32 0, i32 0
  %124 = load ptr, ptr %123, align 8, !tbaa !36
  %125 = getelementptr inbounds nuw %struct._SUNMatrixContent_Dense, ptr %124, i32 0, i32 4
  %126 = load ptr, ptr %125, align 8, !tbaa !39
  %127 = getelementptr inbounds ptr, ptr %126, i64 0
  %128 = load ptr, ptr %127, align 8, !tbaa !42
  %129 = getelementptr inbounds double, ptr %128, i64 2
  store double %121, ptr %129, align 8, !tbaa !18
  %130 = load double, ptr %23, align 8, !tbaa !18
  %131 = load double, ptr %20, align 8, !tbaa !18
  %132 = fmul double %130, %131
  %133 = load ptr, ptr %14, align 8, !tbaa !12
  %134 = getelementptr inbounds nuw %struct._generic_SUNMatrix, ptr %133, i32 0, i32 0
  %135 = load ptr, ptr %134, align 8, !tbaa !36
  %136 = getelementptr inbounds nuw %struct._SUNMatrixContent_Dense, ptr %135, i32 0, i32 4
  %137 = load ptr, ptr %136, align 8, !tbaa !39
  %138 = getelementptr inbounds ptr, ptr %137, i64 1
  %139 = load ptr, ptr %138, align 8, !tbaa !42
  %140 = getelementptr inbounds double, ptr %139, i64 2
  store double %132, ptr %140, align 8, !tbaa !18
  %141 = load ptr, ptr %14, align 8, !tbaa !12
  %142 = getelementptr inbounds nuw %struct._generic_SUNMatrix, ptr %141, i32 0, i32 0
  %143 = load ptr, ptr %142, align 8, !tbaa !36
  %144 = getelementptr inbounds nuw %struct._SUNMatrixContent_Dense, ptr %143, i32 0, i32 4
  %145 = load ptr, ptr %144, align 8, !tbaa !39
  %146 = getelementptr inbounds ptr, ptr %145, i64 2
  %147 = load ptr, ptr %146, align 8, !tbaa !42
  %148 = getelementptr inbounds double, ptr %147, i64 2
  store double 0.000000e+00, ptr %148, align 8, !tbaa !18
  call void @llvm.lifetime.end.p0(i64 8, ptr %24) #6
  call void @llvm.lifetime.end.p0(i64 8, ptr %23) #6
  call void @llvm.lifetime.end.p0(i64 8, ptr %22) #6
  call void @llvm.lifetime.end.p0(i64 8, ptr %21) #6
  call void @llvm.lifetime.end.p0(i64 8, ptr %20) #6
  call void @llvm.lifetime.end.p0(i64 8, ptr %19) #6
  ret i32 0
}