; Function Attrs: mustprogress nofree norecurse nosync nounwind willreturn memory(readwrite, inaccessiblemem: none) uwtable
define internal noundef i32 @JacB(double %0, ptr noundef readonly captures(none) %1, ptr readnone captures(none) %2, ptr readnone captures(none) %3, ptr noundef readonly captures(none) %4, ptr noundef readonly captures(none) %5, ptr readnone captures(none) %6, ptr readnone captures(none) %7, ptr readnone captures(none) %8) #5 {
  %10 = load double, ptr %5, align 8, !tbaa !9
  %11 = getelementptr inbounds nuw i8, ptr %5, i64 8
  %12 = load double, ptr %11, align 8, !tbaa !9
  %13 = getelementptr inbounds nuw i8, ptr %5, i64 16
  %14 = load double, ptr %13, align 8, !tbaa !9
  %15 = load ptr, ptr %1, align 8, !tbaa !13
  %16 = getelementptr inbounds nuw i8, ptr %15, i64 16
  %17 = load ptr, ptr %16, align 8, !tbaa !16
  %18 = getelementptr inbounds nuw i8, ptr %17, i64 8
  %19 = load double, ptr %18, align 8, !tbaa !9
  %20 = getelementptr inbounds nuw i8, ptr %17, i64 16
  %21 = load double, ptr %20, align 8, !tbaa !9
  %22 = load ptr, ptr %4, align 8, !tbaa !24
  %23 = getelementptr inbounds nuw i8, ptr %22, i64 32
  %24 = load ptr, ptr %23, align 8, !tbaa !27
  %25 = load ptr, ptr %24, align 8, !tbaa !30
  store double %10, ptr %25, align 8, !tbaa !9
  %26 = fneg double %10
  %27 = getelementptr inbounds nuw i8, ptr %24, i64 8
  %28 = load ptr, ptr %27, align 8, !tbaa !30
  store double %26, ptr %28, align 8, !tbaa !9
  %29 = getelementptr inbounds nuw i8, ptr %24, i64 16
  %30 = load ptr, ptr %29, align 8, !tbaa !30
  store double 0.000000e+00, ptr %30, align 8, !tbaa !9
  %31 = fneg double %12
  %32 = fmul double %21, %31
  %33 = getelementptr inbounds nuw i8, ptr %25, i64 8
  store double %32, ptr %33, align 8, !tbaa !9
  %34 = fmul double %14, 2.000000e+00
  %35 = fmul double %34, %19
  %36 = tail call double @llvm.fmuladd.f64(double %12, double %21, double %35)
  %37 = getelementptr inbounds nuw i8, ptr %28, i64 8
  store double %36, ptr %37, align 8, !tbaa !9
  %38 = fmul double %14, -2.000000e+00
  %39 = fmul double %38, %19
  %40 = getelementptr inbounds nuw i8, ptr %30, i64 8
  store double %39, ptr %40, align 8, !tbaa !9
  %41 = fmul double %19, %31
  %42 = getelementptr inbounds nuw i8, ptr %25, i64 16
  store double %41, ptr %42, align 8, !tbaa !9
  %43 = fmul double %12, %19
  %44 = getelementptr inbounds nuw i8, ptr %28, i64 16
  store double %43, ptr %44, align 8, !tbaa !9
  %45 = getelementptr inbounds nuw i8, ptr %30, i64 16
  store double 0.000000e+00, ptr %45, align 8, !tbaa !9
  ret i32 0
}